(lp0
(i__main__
Blob
p1
(dp2
S'rect'
p3
(F40.0
F16.0
F80.0
F56.0
tp4
sba(i__main__
Blob
p5
(dp6
g3
(F77.0
F89.0
F117.0
F129.0
tp7
sba(i__main__
Blob
p8
(dp9
g3
(F182.0
F53.0
F222.0
F93.0
tp10
sba(i__main__
Blob
p11
(dp12
g3
(F98.0
F206.0
F138.0
F246.0
tp13
sba(i__main__
Blob
p14
(dp15
g3
(F200.0
F147.0
F240.0
F187.0
tp16
sba(i__main__
Blob
p17
(dp18
g3
(F219.0
F251.0
F259.0
F291.0
tp19
sba(i__main__
Blob
p20
(dp21
g3
(F310.0
F194.0
F350.0
F234.0
tp22
sba.