(lp0
(i__main__
Blob
p1
(dp2
S'rect'
p3
(I55
I71
I95
I111
tp4
sba(i__main__
Blob
p5
(dp6
g3
(I245
I71
I285
I111
tp7
sba(i__main__
Blob
p8
(dp9
g3
(F150.0
F181.0
F190.0
F221.0
tp10
sba(i__main__
Blob
p11
(dp12
g3
(F119.0
F198.0
F159.0
F238.0
tp13
sba(i__main__
Blob
p14
(dp15
g3
(F189.0
F202.0
F229.0
F242.0
tp16
sba(i__main__
Blob
p17
(dp18
g3
(I230
I225
I270
I265
tp19
sba(i__main__
Blob
p20
(dp21
g3
(I73
I224
I113
I264
tp22
sba.