(lp0
(i__main__
Blob
p1
(dp2
S'rect'
p3
(F239.0
F101.0
F279.0
F141.0
tp4
sba(i__main__
Blob
p5
(dp6
g3
(F171.0
F45.0
F211.0
F85.0
tp7
sba(i__main__
Blob
p8
(dp9
g3
(F193.0
F58.0
F233.0
F98.0
tp10
sba(i__main__
Blob
p11
(dp12
g3
(F216.0
F78.0
F256.0
F118.0
tp13
sba(i__main__
Blob
p14
(dp15
g3
(F259.0
F123.0
F299.0
F163.0
tp16
sba(i__main__
Blob
p17
(dp18
g3
(F282.0
F151.0
F322.0
F191.0
tp19
sba(i__main__
Blob
p20
(dp21
g3
(F307.0
F176.0
F347.0
F216.0
tp22
sba.