(lp0
(i__main__
Blob
p1
(dp2
S'rect'
p3
(I55
I71
I95
I111
tp4
sba(i__main__
Blob
p5
(dp6
g3
(I245
I71
I285
I111
tp7
sba(i__main__
Blob
p8
(dp9
g3
(I153
I272
I193
I312
tp10
sba(i__main__
Blob
p11
(dp12
g3
(I107
I258
I147
I298
tp13
sba(i__main__
Blob
p14
(dp15
g3
(I194
I257
I234
I297
tp16
sba(i__main__
Blob
p17
(dp18
g3
(I230
I225
I270
I265
tp19
sba(i__main__
Blob
p20
(dp21
g3
(I73
I224
I113
I264
tp22
sba.